target datalayout = "e-m:e-p270:32:32-p271:32:32-p272:64:64-i64:64-i128:128-f80:128-n8:16:32:64-S128"
target triple = "x86_64-pc-linux-gnu"

%struct.prte_process_info_t = type { %struct.pmix_proc, %struct.pmix_proc, ptr, %struct.pmix_proc, i32, i32, i32, ptr, ptr, i32, i8, ptr, i16, ptr, ptr, i8, ptr, i8 }
%struct.pmix_proc = type { [256 x i8], i32 }
%struct.prte_plm_globals_t = type { ptr, i32, %struct.timeval, %struct.pmix_data_buffer, i8, i64, %struct.pmix_list_t, i8, ptr }
%struct.timeval = type { i64, i64 }
%struct.pmix_data_buffer = type { ptr, ptr, ptr, i64, i64 }
%struct.pmix_list_t = type { %struct.pmix_object_t, %struct.pmix_list_item_t, i64 }
%struct.pmix_object_t = type { %union.pthread_mutex_t, ptr, i32, %struct.pmix_tma }
%union.pthread_mutex_t = type { %struct.__pthread_mutex_s }
%struct.__pthread_mutex_s = type { i32, i32, i32, i32, i32, i16, i16, %struct.__pthread_internal_list }
%struct.__pthread_internal_list = type { ptr, ptr }
%struct.pmix_tma = type { ptr, ptr, ptr, ptr, ptr, ptr, ptr, ptr }
%struct.pmix_list_item_t = type { %struct.pmix_object_t, ptr, ptr, i32 }
%struct.prte_state_base_module_1_0_0_t = type { ptr, ptr, ptr, ptr, ptr, ptr, ptr, ptr, ptr, ptr }
%struct.prte_job_t = type { %struct.pmix_list_item_t, i32, ptr, ptr, [256 x i8], ptr, i32, i32, ptr, ptr, i32, i32, i32, i32, ptr, ptr, ptr, i32, i32, i32, i32, i32, i32, i32, %struct.pmix_proc, i32, i16, %struct.pmix_list_t, %struct.pmix_data_buffer, %struct.pmix_list_t, [256 x i8], i32, ptr, %struct.pmix_cli_result_t }
%struct.pmix_cli_result_t = type { %struct.pmix_object_t, %struct.pmix_list_t, ptr }

@.str = private unnamed_addr constant [37 x i8] c"PRTE ERROR: %s in file %s at line %d\00", align 1
@.str.1 = private unnamed_addr constant [19 x i8] c"plm_slurm_module.c\00", align 1
@prte_process_info = external global %struct.prte_process_info_t, align 8
@prte_plm_globals = external global %struct.prte_plm_globals_t, align 8
@prte_state = external global %struct.prte_state_base_module_1_0_0_t, align 8

; Function Attrs: nounwind uwtable
define internal i32 @plm_slurm_init() #0 {
  %1 = alloca i32, align 4
  %2 = alloca i32, align 4
  %3 = alloca ptr, align 8
  %4 = alloca i32, align 4
  call void @llvm.lifetime.start.p0(i64 4, ptr %2) #13
  call void @llvm.lifetime.start.p0(i64 8, ptr %3) #13
  %5 = call i32 @prte_plm_base_comm_start()
  store i32 %5, ptr %2, align 4, !tbaa !3
  %6 = icmp ne i32 0, %5
  br i1 %6, label %7, label %18

7:                                                ; preds = %0
  br label %8

8:                                                ; preds = %7
  %9 = load i32, ptr %2, align 4, !tbaa !3
  %10 = icmp ne i32 -43, %9
  br i1 %10, label %11, label %14

11:                                               ; preds = %8
  %12 = load i32, ptr %2, align 4, !tbaa !3
  %13 = call ptr @prte_strerror(i32 noundef %12)
  call void (i32, ptr, ...) @pmix_output(i32 noundef 0, ptr noundef @.str, ptr noundef %13, ptr noundef @.str.1, i32 noundef 124)
  br label %14

14:                                               ; preds = %11, %8
  br label %15

15:                                               ; preds = %14
  br label %16

16:                                               ; preds = %15
  %17 = load i32, ptr %2, align 4, !tbaa !3
  store i32 %17, ptr %1, align 4
  store i32 1, ptr %4, align 4
  br label %42

18:                                               ; preds = %0
  %19 = call ptr @prte_get_job_data_object(ptr noundef @prte_process_info)
  store ptr %19, ptr %3, align 8, !tbaa !7
  %20 = load ptr, ptr %3, align 8, !tbaa !7
  %21 = getelementptr inbounds nuw %struct.prte_job_t, ptr %20, i32 0, i32 27
  %22 = call zeroext i1 @prte_get_attribute(ptr noundef %21, i16 noundef zeroext 269, ptr noundef null, i16 noundef zeroext 1)
  br i1 %22, label %23, label %24

23:                                               ; preds = %18
  store i8 1, ptr getelementptr inbounds nuw (%struct.prte_plm_globals_t, ptr @prte_plm_globals, i32 0, i32 4), align 8, !tbaa !9
  br label %25

24:                                               ; preds = %18
  store i8 0, ptr getelementptr inbounds nuw (%struct.prte_plm_globals_t, ptr @prte_plm_globals, i32 0, i32 4), align 8, !tbaa !9
  br label %25

25:                                               ; preds = %24, %23
  %26 = load ptr, ptr getelementptr inbounds nuw (%struct.prte_state_base_module_1_0_0_t, ptr @prte_state, i32 0, i32 3), align 8, !tbaa !23
  %27 = call i32 %26(i32 noundef 8, ptr noundef @launch_daemons)
  store i32 %27, ptr %2, align 4, !tbaa !3
  %28 = icmp ne i32 0, %27
  br i1 %28, label %29, label %40

29:                                               ; preds = %25
  br label %30

30:                                               ; preds = %29
  %31 = load i32, ptr %2, align 4, !tbaa !3
  %32 = icmp ne i32 -43, %31
  br i1 %32, label %33, label %36

33:                                               ; preds = %30
  %34 = load i32, ptr %2, align 4, !tbaa !3
  %35 = call ptr @prte_strerror(i32 noundef %34)
  call void (i32, ptr, ...) @pmix_output(i32 noundef 0, ptr noundef @.str, ptr noundef %35, ptr noundef @.str.1, i32 noundef 148)
  br label %36

36:                                               ; preds = %33, %30
  br label %37

37:                                               ; preds = %36
  br label %38

38:                                               ; preds = %37
  %39 = load i32, ptr %2, align 4, !tbaa !3
  store i32 %39, ptr %1, align 4
  store i32 1, ptr %4, align 4
  br label %42

40:                                               ; preds = %25
  %41 = load i32, ptr %2, align 4, !tbaa !3
  store i32 %41, ptr %1, align 4
  store i32 1, ptr %4, align 4
  br label %42

42:                                               ; preds = %40, %38, %16
  call void @llvm.lifetime.end.p0(i64 8, ptr %3) #13
  call void @llvm.lifetime.end.p0(i64 4, ptr %2) #13
  %43 = load i32, ptr %1, align 4
  ret i32 %43
}