; Function Attrs: nounwind uwtable
define internal noundef i32 @plm_slurm_init() #0 {
  %1 = tail call i32 @prte_plm_base_comm_start() #17
  switch i32 %1, label %.sink.split [
    i32 0, label %2
    i32 -43, label %9
  ]

2:                                                ; preds = %0
  %3 = tail call ptr @prte_get_job_data_object(ptr noundef nonnull @prte_process_info) #17
  %4 = getelementptr inbounds nuw i8, ptr %3, i64 792
  %5 = tail call zeroext i1 @prte_get_attribute(ptr noundef nonnull %4, i16 noundef zeroext 269, ptr noundef null, i16 noundef zeroext 1) #17
  %. = zext i1 %5 to i8
  store i8 %., ptr getelementptr inbounds nuw (i8, ptr @prte_plm_globals, i64 72), align 8, !tbaa !3
  %6 = load ptr, ptr getelementptr inbounds nuw (i8, ptr @prte_state, i64 24), align 8, !tbaa !21
  %7 = tail call i32 %6(i32 noundef 8, ptr noundef nonnull @launch_daemons) #17
  switch i32 %7, label %.sink.split [
    i32 0, label %9
    i32 -43, label %9
  ]

.sink.split:                                      ; preds = %2, %0
  %.sink14 = phi i32 [ %1, %0 ], [ %7, %2 ]
  %.sink13 = phi i32 [ 124, %0 ], [ 148, %2 ]
  %8 = tail call ptr @prte_strerror(i32 noundef %.sink14) #17
  tail call void (i32, ptr, ...) @pmix_output(i32 noundef 0, ptr noundef nonnull @.str, ptr noundef %8, ptr noundef nonnull @.str.1, i32 noundef %.sink13) #17
  br label %9

9:                                                ; preds = %.sink.split, %2, %2, %0
  %.0 = phi i32 [ %1, %0 ], [ %7, %2 ], [ %7, %2 ], [ %.sink14, %.sink.split ]
  ret i32 %.0
}